target datalayout = "e-m:e-p270:32:32-p271:32:32-p272:64:64-i64:64-i128:128-f80:128-n8:16:32:64-S128"
target triple = "x86_64-pc-linux-gnu"

%struct._ftype_t = type { i32, i32, ptr, ptr, ptr, ptr, ptr, ptr, ptr, ptr, ptr, ptr, ptr, ptr, ptr, %union.anon, %union.anon.0, ptr, ptr, ptr, ptr, ptr, ptr, ptr, ptr, ptr, ptr, ptr, ptr, ptr, ptr, ptr }
%union.anon = type { ptr }
%union.anon.0 = type { ptr }
%struct._fvalue_t = type { ptr, %union.anon.1 }
%union.anon.1 = type { %struct._protocol_value_t }
%struct._protocol_value_t = type { ptr, i32, ptr, i8 }

; Function Attrs: null_pointer_is_valid sspstrong uwtable
define i32 @fvalue_to_sinteger64(ptr noundef %0, ptr noundef %1) #0 {
  %3 = alloca i32, align 4
  %4 = alloca ptr, align 8
  %5 = alloca ptr, align 8
  store ptr %0, ptr %4, align 8
  store ptr %1, ptr %5, align 8
  %6 = load ptr, ptr %4, align 8
  %7 = getelementptr inbounds nuw %struct._fvalue_t, ptr %6, i32 0, i32 0
  %8 = load ptr, ptr %7, align 8
  %9 = getelementptr inbounds nuw %struct._ftype_t, ptr %8, i32 0, i32 13
  %10 = load ptr, ptr %9, align 8
  %11 = icmp ne ptr %10, null
  br i1 %11, label %13, label %12

12:                                               ; preds = %2
  store i32 3, ptr %3, align 4
  br label %22

13:                                               ; preds = %2
  %14 = load ptr, ptr %4, align 8
  %15 = getelementptr inbounds nuw %struct._fvalue_t, ptr %14, i32 0, i32 0
  %16 = load ptr, ptr %15, align 8
  %17 = getelementptr inbounds nuw %struct._ftype_t, ptr %16, i32 0, i32 13
  %18 = load ptr, ptr %17, align 8
  %19 = load ptr, ptr %4, align 8
  %20 = load ptr, ptr %5, align 8
  %21 = call i32 %18(ptr noundef %19, ptr noundef %20)
  store i32 %21, ptr %3, align 4
  br label %22

22:                                               ; preds = %13, %12
  %23 = load i32, ptr %3, align 4
  ret i32 %23
}